; Function Attrs: nofree nounwind uwtable
define void @geod_gendirectline(ptr noundef %0, ptr noundef readonly captures(none) %1, double noundef %2, double noundef %3, double noundef %4, i32 noundef %5, double noundef %6, i32 noundef %7) local_unnamed_addr #3 {
  tail call void @geod_lineinit(ptr noundef %0, ptr noundef %1, double noundef %2, double noundef %3, double noundef %4, i32 noundef %7)
  %9 = and i32 %5, 1
  %.not.i = icmp eq i32 %9, 0
  br i1 %.not.i, label %15, label %10

10:                                               ; preds = %8
  %11 = getelementptr inbounds nuw i8, ptr %0, i64 56
  store double %6, ptr %11, align 8, !tbaa !48
  %12 = load double, ptr @NaN, align 8, !tbaa !3
  %13 = getelementptr inbounds nuw i8, ptr %0, i64 64
  store double %12, ptr %13, align 8, !tbaa !47
  %14 = tail call double @geod_genposition(ptr noundef %0, i32 noundef 1, double noundef %6, ptr noundef null, ptr noundef null, ptr noundef null, ptr noundef nonnull %13, ptr noundef null, ptr noundef null, ptr noundef null, ptr noundef null)
  br label %geod_gensetdistance.exit

15:                                               ; preds = %8
  %16 = getelementptr inbounds nuw i8, ptr %0, i64 64
  store double %6, ptr %16, align 8, !tbaa !47
  %17 = tail call double @geod_genposition(ptr noundef %0, i32 noundef 0, double noundef %6, ptr noundef null, ptr noundef null, ptr noundef null, ptr noundef null, ptr noundef null, ptr noundef null, ptr noundef null, ptr noundef null)
  %18 = getelementptr inbounds nuw i8, ptr %0, i64 56
  store double %17, ptr %18, align 8, !tbaa !48
  br label %geod_gensetdistance.exit

geod_gensetdistance.exit:                         ; preds = %10, %15
  ret void
}